
TEST.exe:     file format elf32-littleriscv


Disassembly of section .text:

80000000 <_start>:
80000000:	70040497          	auipc	s1,0x70040
80000004:	00048493          	mv	s1,s1
80000008:	70041a97          	auipc	s5,0x70041
8000000c:	ff9a8a93          	addi	s5,s5,-7 # f0041001 <transposed>
80000010:	04000913          	li	s2,64
80000014:	4985                	li	s3,1
80000016:	2aa5                	jal	8000018e <convertToTranspose>
80000018:	2011                	jal	8000001c <solveBoard>
8000001a:	a24d                	j	800001bc <exit>

8000001c <solveBoard>:
8000001c:	1121                	addi	sp,sp,-24
8000001e:	ca5a                	sw	s6,20(sp)
80000020:	c852                	sw	s4,16(sp)
80000022:	c636                	sw	a3,12(sp)
80000024:	c432                	sw	a2,8(sp)
80000026:	c22e                	sw	a1,4(sp)
80000028:	c006                	sw	ra,0(sp)
8000002a:	2281                	jal	8000016a <saveTempRegisters>
8000002c:	4581                	li	a1,0

8000002e <outer>:
8000002e:	0725d463          	bge	a1,s2,80000096 <solved>
80000032:	03258e33          	mul	t3,a1,s2
80000036:	9e26                	add	t3,t3,s1
80000038:	4601                	li	a2,0

8000003a <inner>:
8000003a:	05265c63          	bge	a2,s2,80000092 <innerEnd>
8000003e:	00ce0a33          	add	s4,t3,a2
80000042:	000a0e83          	lb	t4,0(s4)
80000046:	000e8463          	beqz	t4,8000004e <anotherLoop>
8000004a:	0605                	addi	a2,a2,1
8000004c:	b7fd                	j	8000003a <inner>

8000004e <anotherLoop>:
8000004e:	4685                	li	a3,1

80000050 <looop>:
80000050:	02d94763          	blt	s2,a3,8000007e <reject>
80000054:	2899                	jal	800000aa <isSafe>
80000056:	03351263          	bne	a0,s3,8000007a <nope>
8000005a:	03260e33          	mul	t3,a2,s2
8000005e:	9e2e                	add	t3,t3,a1
80000060:	015e0b33          	add	s6,t3,s5
80000064:	00db0023          	sb	a3,0(s6)
80000068:	00da0023          	sb	a3,0(s4)
8000006c:	3f45                	jal	8000001c <solveBoard>
8000006e:	03350463          	beq	a0,s3,80000096 <solved>
80000072:	000a0023          	sb	zero,0(s4)
80000076:	000b0023          	sb	zero,0(s6)

8000007a <nope>:
8000007a:	0685                	addi	a3,a3,1
8000007c:	bfd1                	j	80000050 <looop>

8000007e <reject>:
8000007e:	28fd                	jal	8000017c <restoreTempRegisters>
80000080:	4082                	lw	ra,0(sp)
80000082:	4592                	lw	a1,4(sp)
80000084:	4622                	lw	a2,8(sp)
80000086:	46b2                	lw	a3,12(sp)
80000088:	4a42                	lw	s4,16(sp)
8000008a:	4b52                	lw	s6,20(sp)
8000008c:	0161                	addi	sp,sp,24
8000008e:	4501                	li	a0,0
80000090:	8082                	ret

80000092 <innerEnd>:
80000092:	0585                	addi	a1,a1,1
80000094:	bf69                	j	8000002e <outer>

80000096 <solved>:
80000096:	20dd                	jal	8000017c <restoreTempRegisters>
80000098:	4082                	lw	ra,0(sp)
8000009a:	4592                	lw	a1,4(sp)
8000009c:	4622                	lw	a2,8(sp)
8000009e:	46b2                	lw	a3,12(sp)
800000a0:	4a42                	lw	s4,16(sp)
800000a2:	4b52                	lw	s6,20(sp)
800000a4:	0161                	addi	sp,sp,24
800000a6:	4505                	li	a0,1
800000a8:	8082                	ret

800000aa <isSafe>:
800000aa:	1161                	addi	sp,sp,-8
800000ac:	c252                	sw	s4,4(sp)
800000ae:	c006                	sw	ra,0(sp)
800000b0:	286d                	jal	8000016a <saveTempRegisters>
800000b2:	02000713          	li	a4,32
800000b6:	000772d7          	vsetvli	t0,a4,e8,m1,tu,mu
800000ba:	03258333          	mul	t1,a1,s2
800000be:	9326                	add	t1,t1,s1
800000c0:	02030007          	vle8.v	v0,(t1)
800000c4:	6206c0d7          	vmseq.vx	v1,v0,a3
800000c8:	421823d7          	vcpop.m	t2,v1
800000cc:	08039363          	bnez	t2,80000152 <notSafe>
800000d0:	02030313          	addi	t1,t1,32
800000d4:	02030007          	vle8.v	v0,(t1)
800000d8:	6206c0d7          	vmseq.vx	v1,v0,a3
800000dc:	421823d7          	vcpop.m	t2,v1
800000e0:	06039963          	bnez	t2,80000152 <notSafe>
800000e4:	03260333          	mul	t1,a2,s2
800000e8:	9356                	add	t1,t1,s5
800000ea:	02030007          	vle8.v	v0,(t1)
800000ee:	6206c0d7          	vmseq.vx	v1,v0,a3
800000f2:	421823d7          	vcpop.m	t2,v1
800000f6:	04039e63          	bnez	t2,80000152 <notSafe>
800000fa:	02030313          	addi	t1,t1,32
800000fe:	02030007          	vle8.v	v0,(t1)
80000102:	6206c0d7          	vmseq.vx	v1,v0,a3
80000106:	421823d7          	vcpop.m	t2,v1
8000010a:	04039463          	bnez	t2,80000152 <notSafe>
8000010e:	4721                	li	a4,8
80000110:	000772d7          	vsetvli	t0,a4,e8,m1,tu,mu
80000114:	4321                	li	t1,8
80000116:	0265e3b3          	rem	t2,a1,t1
8000011a:	407583b3          	sub	t2,a1,t2
8000011e:	02666f33          	rem	t5,a2,t1
80000122:	41e60f33          	sub	t5,a2,t5
80000126:	4e01                	li	t3,0

80000128 <boxCheckLoop>:
80000128:	026e5b63          	bge	t3,t1,8000015e <safe>
8000012c:	93f2                	add	t2,t2,t3
8000012e:	027903b3          	mul	t2,s2,t2
80000132:	93fa                	add	t2,t2,t5
80000134:	93a6                	add	t2,t2,s1
80000136:	02038187          	vle8.v	v3,(t2)
8000013a:	6236c257          	vmseq.vx	v4,v3,a3
8000013e:	42482ed7          	vcpop.m	t4,v4
80000142:	000e9863          	bnez	t4,80000152 <notSafe>
80000146:	0e05                	addi	t3,t3,1
80000148:	0265e3b3          	rem	t2,a1,t1
8000014c:	407583b3          	sub	t2,a1,t2
80000150:	bfe1                	j	80000128 <boxCheckLoop>

80000152 <notSafe>:
80000152:	4501                	li	a0,0
80000154:	2025                	jal	8000017c <restoreTempRegisters>
80000156:	4082                	lw	ra,0(sp)
80000158:	4a12                	lw	s4,4(sp)
8000015a:	0121                	addi	sp,sp,8
8000015c:	8082                	ret

8000015e <safe>:
8000015e:	4505                	li	a0,1
80000160:	2831                	jal	8000017c <restoreTempRegisters>
80000162:	4082                	lw	ra,0(sp)
80000164:	4a12                	lw	s4,4(sp)
80000166:	0121                	addi	sp,sp,8
80000168:	8082                	ret

8000016a <saveTempRegisters>:
8000016a:	1111                	addi	sp,sp,-28
8000016c:	cc7e                	sw	t6,24(sp)
8000016e:	ca7a                	sw	t5,20(sp)
80000170:	c876                	sw	t4,16(sp)
80000172:	c672                	sw	t3,12(sp)
80000174:	c41e                	sw	t2,8(sp)
80000176:	c21a                	sw	t1,4(sp)
80000178:	c016                	sw	t0,0(sp)
8000017a:	8082                	ret

8000017c <restoreTempRegisters>:
8000017c:	4282                	lw	t0,0(sp)
8000017e:	4312                	lw	t1,4(sp)
80000180:	43a2                	lw	t2,8(sp)
80000182:	4e32                	lw	t3,12(sp)
80000184:	4ec2                	lw	t4,16(sp)
80000186:	4f52                	lw	t5,20(sp)
80000188:	4fe2                	lw	t6,24(sp)
8000018a:	0171                	addi	sp,sp,28
8000018c:	8082                	ret

8000018e <convertToTranspose>:
8000018e:	4381                	li	t2,0

80000190 <outer_loop>:
80000190:	03238563          	beq	t2,s2,800001ba <end_outer_loop>
80000194:	4e01                	li	t3,0

80000196 <inner_loop>:
80000196:	032e0063          	beq	t3,s2,800001b6 <end_inner_loop>
8000019a:	03238eb3          	mul	t4,t2,s2
8000019e:	9ef2                	add	t4,t4,t3
800001a0:	9ea6                	add	t4,t4,s1
800001a2:	000e8f03          	lb	t5,0(t4)
800001a6:	032e0fb3          	mul	t6,t3,s2
800001aa:	9f9e                	add	t6,t6,t2
800001ac:	9fd6                	add	t6,t6,s5
800001ae:	01ef8023          	sb	t5,0(t6)
800001b2:	0e05                	addi	t3,t3,1
800001b4:	b7cd                	j	80000196 <inner_loop>

800001b6 <end_inner_loop>:
800001b6:	0385                	addi	t2,t2,1
800001b8:	bfe1                	j	80000190 <outer_loop>

800001ba <end_outer_loop>:
800001ba:	8082                	ret

800001bc <exit>:
800001bc:	4281                	li	t0,0
800001be:	03290333          	mul	t1,s2,s2

800001c2 <loop>:
800001c2:	00628863          	beq	t0,t1,800001d2 <_finish>
800001c6:	005483b3          	add	t2,s1,t0
800001ca:	00038e03          	lb	t3,0(t2)
800001ce:	0285                	addi	t0,t0,1
800001d0:	bfcd                	j	800001c2 <loop>

800001d2 <_finish>:
800001d2:	d05801b7          	lui	gp,0xd0580
800001d6:	0ff00293          	li	t0,255
800001da:	00518023          	sb	t0,0(gp) # d0580000 <_end+0x5057fd56>
800001de:	fe000ae3          	beqz	zero,800001d2 <_finish>
800001e2:	0001                	nop
800001e4:	0001                	nop
800001e6:	0001                	nop
800001e8:	0001                	nop
800001ea:	0001                	nop
800001ec:	0001                	nop
800001ee:	0001                	nop
800001f0:	0001                	nop
800001f2:	0001                	nop
800001f4:	0001                	nop
800001f6:	0001                	nop
800001f8:	0001                	nop
800001fa:	0001                	nop
800001fc:	0001                	nop
800001fe:	0001                	nop
80000200:	0001                	nop
80000202:	0001                	nop
80000204:	0001                	nop
80000206:	0001                	nop
80000208:	0001                	nop
8000020a:	0001                	nop
8000020c:	0001                	nop
8000020e:	0001                	nop
80000210:	0001                	nop
80000212:	0001                	nop
80000214:	0001                	nop
80000216:	0001                	nop
80000218:	0001                	nop
8000021a:	0001                	nop
8000021c:	0001                	nop
8000021e:	0001                	nop
80000220:	0001                	nop
80000222:	0001                	nop
80000224:	0001                	nop
80000226:	0001                	nop
80000228:	0001                	nop
8000022a:	0001                	nop
8000022c:	0001                	nop
8000022e:	0001                	nop
80000230:	0001                	nop
80000232:	0001                	nop
80000234:	0001                	nop
80000236:	0001                	nop
80000238:	0001                	nop
8000023a:	0001                	nop
8000023c:	0001                	nop
8000023e:	0001                	nop
80000240:	0001                	nop
80000242:	0001                	nop
80000244:	0001                	nop
80000246:	0001                	nop
80000248:	0001                	nop
8000024a:	0001                	nop
8000024c:	0001                	nop
8000024e:	0001                	nop
80000250:	0001                	nop
80000252:	0001                	nop
80000254:	0001                	nop
80000256:	0001                	nop
80000258:	0001                	nop
8000025a:	0001                	nop
8000025c:	0001                	nop
8000025e:	0001                	nop
80000260:	0001                	nop
80000262:	0001                	nop
80000264:	0001                	nop
80000266:	0001                	nop
80000268:	0001                	nop
8000026a:	0001                	nop
8000026c:	0001                	nop
8000026e:	0001                	nop
80000270:	0001                	nop
80000272:	0001                	nop
80000274:	0001                	nop
80000276:	0001                	nop
80000278:	0001                	nop
8000027a:	0001                	nop
8000027c:	0001                	nop
8000027e:	0001                	nop
80000280:	0001                	nop
80000282:	0001                	nop
80000284:	0001                	nop
80000286:	0001                	nop
80000288:	0001                	nop
8000028a:	0001                	nop
8000028c:	0001                	nop
8000028e:	0001                	nop
80000290:	0001                	nop
80000292:	0001                	nop
80000294:	0001                	nop
80000296:	0001                	nop
80000298:	0001                	nop
8000029a:	0001                	nop
8000029c:	0001                	nop
8000029e:	0001                	nop
800002a0:	0001                	nop
800002a2:	0001                	nop
800002a4:	0001                	nop
800002a6:	0001                	nop
800002a8:	0001                	nop
